target datalayout = "e-m:e-p270:32:32-p271:32:32-p272:64:64-i64:64-i128:128-f80:128-n8:16:32:64-S128"
target triple = "x86_64-pc-linux-gnu"

%struct.sockaddr_storage = type { i16, [118 x i8], i64 }
%struct.slurm_conf_t = type { i64, ptr, i16, ptr, ptr, ptr, ptr, ptr, i16, ptr, ptr, ptr, ptr, ptr, ptr, ptr, i16, ptr, ptr, ptr, ptr, i16, ptr, ptr, ptr, i64, ptr, ptr, ptr, ptr, i16, ptr, ptr, i16, i32, ptr, i32, ptr, i32, i32, ptr, ptr, i64, i64, ptr, i16, i16, ptr, i32, i32, ptr, i32, ptr, i32, i16, i16, i16, ptr, i16, i16, ptr, ptr, i32, i16, i16, ptr, i32, i16, ptr, ptr, ptr, ptr, i16, ptr, ptr, ptr, ptr, i32, ptr, ptr, ptr, ptr, i16, i16, ptr, i32, i32, i32, i16, i16, ptr, ptr, i16, ptr, ptr, i32, i32, i32, i32, i32, i64, i32, i32, i16, ptr, ptr, i32, ptr, ptr, ptr, i16, i32, ptr, ptr, i16, ptr, ptr, i32, i16, ptr, ptr, ptr, ptr, i32, i32, i16, i16, i32, ptr, i16, ptr, i32, i32, i32, i32, i32, i32, ptr, i16, ptr, ptr, i32, i16, ptr, i32, i16, i16, ptr, ptr, ptr, i16, ptr, ptr, ptr, ptr, i16, i16, ptr, i16, ptr, i16, ptr, i16, ptr, i16, ptr, ptr, ptr, ptr, i16, ptr, ptr, ptr, i32, ptr, i32, ptr, ptr, i16, ptr, ptr, i32, i16, ptr, ptr, i16, i16, ptr, i16, ptr, ptr, ptr, i32, ptr, i16, i16, ptr, ptr, ptr, ptr, ptr, ptr, ptr, ptr, i16, i32, i16, ptr, ptr, ptr, ptr, i32, ptr, ptr, ptr, i16, ptr, ptr, ptr, i16, ptr, i16, ptr, i16, i16, ptr }
%struct.slurm_msg = type { %struct.sockaddr_storage, ptr, i32, i32, i32, i8, i32, i8, i32, ptr, ptr, i32, ptr, ptr, i16, i8, i16, i16, %struct.forward, ptr, %struct.sockaddr_storage, ptr }
%struct.forward = type { %struct.slurm_node_alias_addrs_t, i16, i16, ptr, i32, i16, i16 }
%struct.slurm_node_alias_addrs_t = type { i64, ptr, ptr, i32, ptr }

@pmi_time = dso_local global i32 0, align 4
@srun_port = dso_local global i16 0, align 2
@srun_addr = dso_local global %struct.sockaddr_storage zeroinitializer, align 8
@slurm_conf = external global %struct.slurm_conf_t, align 8
@.str = private unnamed_addr constant [28 x i8] c"slurm_send_kvs_comm_set: %m\00", align 1
@.str.1 = private unnamed_addr constant [18 x i8] c"send_kvs retry %d\00", align 1
@.str.13 = private unnamed_addr constant [21 x i8] c"SLURM_SRUN_COMM_HOST\00", align 1
@.str.14 = private unnamed_addr constant [21 x i8] c"SLURM_SRUN_COMM_PORT\00", align 1
@.str.15 = private unnamed_addr constant [9 x i8] c"PMI_TIME\00", align 1
@.str.16 = private unnamed_addr constant [21 x i8] c"Invalid PMI_TIME: %s\00", align 1

; Function Attrs: inlinehint nounwind willreturn memory(read) uwtable
define available_externally i64 @atol(ptr noundef nonnull %0) #7 {
  %2 = alloca ptr, align 8
  store ptr %0, ptr %2, align 8
  %3 = load ptr, ptr %2, align 8
  %4 = call i64 @strtol(ptr noundef %3, ptr noundef null, i32 noundef 10) #8
  ret i64 %4
}

; Function Attrs: nounwind uwtable
define internal void @_set_pmi_time() #0 {
  %1 = alloca ptr, align 8
  %2 = alloca ptr, align 8
  %3 = alloca i32, align 4
  call void @llvm.lifetime.start.p0(i64 8, ptr %1) #8
  call void @llvm.lifetime.start.p0(i64 8, ptr %2) #8
  %4 = load i32, ptr @pmi_time, align 4
  %5 = icmp ne i32 %4, 0
  br i1 %5, label %6, label %7

6:                                                ; preds = %0
  store i32 1, ptr %3, align 4
  br label %28

7:                                                ; preds = %0
  %8 = call ptr @getenv(ptr noundef @.str.15) #8
  store ptr %8, ptr %1, align 8
  %9 = load ptr, ptr %1, align 8
  %10 = icmp eq ptr %9, null
  br i1 %10, label %11, label %12

11:                                               ; preds = %7
  store i32 500, ptr @pmi_time, align 4
  store i32 1, ptr %3, align 4
  br label %28

12:                                               ; preds = %7
  %13 = load ptr, ptr %1, align 8
  %14 = call i64 @strtol(ptr noundef %13, ptr noundef %2, i32 noundef 10) #8
  %15 = trunc i64 %14 to i32
  store i32 %15, ptr @pmi_time, align 4
  %16 = load i32, ptr @pmi_time, align 4
  %17 = icmp sle i32 %16, 0
  br i1 %17, label %24, label %18

18:                                               ; preds = %12
  %19 = load ptr, ptr %2, align 8
  %20 = getelementptr inbounds i8, ptr %19, i64 0
  %21 = load i8, ptr %20, align 1
  %22 = sext i8 %21 to i32
  %23 = icmp ne i32 %22, 0
  br i1 %23, label %24, label %27

24:                                               ; preds = %18, %12
  %25 = load ptr, ptr %1, align 8
  %26 = call i32 (ptr, ...) @error(ptr noundef @.str.16, ptr noundef %25)
  store i32 500, ptr @pmi_time, align 4
  br label %27

27:                                               ; preds = %24, %18
  store i32 0, ptr %3, align 4
  br label %28

28:                                               ; preds = %27, %11, %6
  call void @llvm.lifetime.end.p0(i64 8, ptr %2) #8
  call void @llvm.lifetime.end.p0(i64 8, ptr %1) #8
  %29 = load i32, ptr %3, align 4
  switch i32 %29, label %31 [
    i32 0, label %30
    i32 1, label %30
  ]

30:                                               ; preds = %28, %28
  ret void

31:                                               ; preds = %28
  unreachable
}

; Function Attrs: nounwind uwtable
define internal i32 @_get_addr() #0 {
  %1 = alloca i32, align 4
  %2 = alloca ptr, align 8
  %3 = alloca ptr, align 8
  %4 = alloca i32, align 4
  call void @llvm.lifetime.start.p0(i64 8, ptr %2) #8
  call void @llvm.lifetime.start.p0(i64 8, ptr %3) #8
  %5 = load i16, ptr @srun_port, align 2
  %6 = icmp ne i16 %5, 0
  br i1 %6, label %7, label %8

7:                                                ; preds = %0
  store i32 0, ptr %1, align 4
  store i32 1, ptr %4, align 4
  br label %23

8:                                                ; preds = %0
  %9 = call ptr @getenv(ptr noundef @.str.13) #8
  store ptr %9, ptr %2, align 8
  %10 = call ptr @getenv(ptr noundef @.str.14) #8
  store ptr %10, ptr %3, align 8
  %11 = load ptr, ptr %2, align 8
  %12 = icmp ne ptr %11, null
  br i1 %12, label %13, label %16

13:                                               ; preds = %8
  %14 = load ptr, ptr %3, align 8
  %15 = icmp ne ptr %14, null
  br i1 %15, label %17, label %16

16:                                               ; preds = %13, %8
  store i32 -1, ptr %1, align 4
  store i32 1, ptr %4, align 4
  br label %23

17:                                               ; preds = %13
  %18 = load ptr, ptr %3, align 8
  %19 = call i64 @atol(ptr noundef %18) #9
  %20 = trunc i64 %19 to i16
  store i16 %20, ptr @srun_port, align 2
  %21 = load i16, ptr @srun_port, align 2
  %22 = load ptr, ptr %2, align 8
  call void @slurm_set_addr(ptr noundef @srun_addr, i16 noundef zeroext %21, ptr noundef %22)
  store i32 0, ptr %1, align 4
  store i32 1, ptr %4, align 4
  br label %23

23:                                               ; preds = %17, %16, %7
  call void @llvm.lifetime.end.p0(i64 8, ptr %3) #8
  call void @llvm.lifetime.end.p0(i64 8, ptr %2) #8
  %24 = load i32, ptr %1, align 4
  ret i32 %24
}

; Function Attrs: nounwind uwtable
define dso_local i32 @slurm_pmi_send_kvs_comm_set(ptr noundef %0, i32 noundef %1, i32 noundef %2) #0 {
  %4 = alloca i32, align 4
  %5 = alloca ptr, align 8
  %6 = alloca i32, align 4
  %7 = alloca i32, align 4
  %8 = alloca %struct.slurm_msg, align 8
  %9 = alloca i32, align 4
  %10 = alloca i32, align 4
  %11 = alloca i32, align 4
  %12 = alloca i32, align 4
  store ptr %0, ptr %5, align 8
  store i32 %1, ptr %6, align 4
  store i32 %2, ptr %7, align 4
  call void @llvm.lifetime.start.p0(i64 424, ptr %8) #8
  call void @llvm.lifetime.start.p0(i64 4, ptr %9) #8
  call void @llvm.lifetime.start.p0(i64 4, ptr %10) #8
  store i32 0, ptr %10, align 4
  call void @llvm.lifetime.start.p0(i64 4, ptr %11) #8
  store i32 0, ptr %11, align 4
  %13 = load ptr, ptr %5, align 8
  %14 = icmp eq ptr %13, null
  br i1 %14, label %15, label %16

15:                                               ; preds = %3
  store i32 22, ptr %4, align 4
  store i32 1, ptr %12, align 4
  br label %86

16:                                               ; preds = %3
  call void @slurm_init(ptr noundef null)
  %17 = call i32 @_get_addr()
  store i32 %17, ptr %9, align 4
  %18 = icmp ne i32 %17, 0
  br i1 %18, label %19, label %21

19:                                               ; preds = %16
  %20 = load i32, ptr %9, align 4
  store i32 %20, ptr %4, align 4
  store i32 1, ptr %12, align 4
  br label %86

21:                                               ; preds = %16
  call void @_set_pmi_time()
  call void @slurm_msg_t_init(ptr noundef %8)
  call void @slurm_msg_set_r_uid(ptr noundef %8, i32 noundef -1)
  %22 = getelementptr inbounds nuw %struct.slurm_msg, ptr %8, i32 0, i32 0
  call void @llvm.memcpy.p0.p0.i64(ptr align 8 %22, ptr align 8 @srun_addr, i64 128, i1 false)
  %23 = getelementptr inbounds nuw %struct.slurm_msg, ptr %8, i32 0, i32 16
  store i16 7201, ptr %23, align 4
  %24 = load ptr, ptr %5, align 8
  %25 = getelementptr inbounds nuw %struct.slurm_msg, ptr %8, i32 0, i32 13
  store ptr %24, ptr %25, align 8
  %26 = load i32, ptr %6, align 4
  %27 = load i32, ptr %7, align 4
  call void @_delay_rpc(i32 noundef %26, i32 noundef %27)
  %28 = load i32, ptr %7, align 4
  %29 = icmp sgt i32 %28, 4000
  br i1 %29, label %30, label %34

30:                                               ; preds = %21
  %31 = load i16, ptr getelementptr inbounds nuw (%struct.slurm_conf_t, ptr @slurm_conf, i32 0, i32 110), align 8
  %32 = zext i16 %31 to i32
  %33 = mul nsw i32 %32, 24000
  store i32 %33, ptr %11, align 4
  br label %58

34:                                               ; preds = %21
  %35 = load i32, ptr %7, align 4
  %36 = icmp sgt i32 %35, 1000
  br i1 %36, label %37, label %41

37:                                               ; preds = %34
  %38 = load i16, ptr getelementptr inbounds nuw (%struct.slurm_conf_t, ptr @slurm_conf, i32 0, i32 110), align 8
  %39 = zext i16 %38 to i32
  %40 = mul nsw i32 %39, 12000
  store i32 %40, ptr %11, align 4
  br label %57

41:                                               ; preds = %34
  %42 = load i32, ptr %7, align 4
  %43 = icmp sgt i32 %42, 100
  br i1 %43, label %44, label %48

44:                                               ; preds = %41
  %45 = load i16, ptr getelementptr inbounds nuw (%struct.slurm_conf_t, ptr @slurm_conf, i32 0, i32 110), align 8
  %46 = zext i16 %45 to i32
  %47 = mul nsw i32 %46, 5000
  store i32 %47, ptr %11, align 4
  br label %56

48:                                               ; preds = %41
  %49 = load i32, ptr %7, align 4
  %50 = icmp sgt i32 %49, 10
  br i1 %50, label %51, label %55

51:                                               ; preds = %48
  %52 = load i16, ptr getelementptr inbounds nuw (%struct.slurm_conf_t, ptr @slurm_conf, i32 0, i32 110), align 8
  %53 = zext i16 %52 to i32
  %54 = mul nsw i32 %53, 2000
  store i32 %54, ptr %11, align 4
  br label %55

55:                                               ; preds = %51, %48
  br label %56

56:                                               ; preds = %55, %44
  br label %57

57:                                               ; preds = %56, %37
  br label %58

58:                                               ; preds = %57, %30
  br label %59

59:                                               ; preds = %81, %58
  %60 = load i32, ptr %11, align 4
  %61 = call i32 @slurm_send_recv_rc_msg_only_one(ptr noundef %8, ptr noundef %9, i32 noundef %60)
  %62 = icmp slt i32 %61, 0
  br i1 %62, label %63, label %84

63:                                               ; preds = %59
  %64 = load i32, ptr %10, align 4
  %65 = add nsw i32 %64, 1
  store i32 %65, ptr %10, align 4
  %66 = icmp sgt i32 %64, 5
  br i1 %66, label %67, label %69

67:                                               ; preds = %63
  %68 = call i32 (ptr, ...) @error(ptr noundef @.str)
  store i32 -1, ptr %4, align 4
  store i32 1, ptr %12, align 4
  br label %86

69:                                               ; preds = %63
  br label %70

70:                                               ; preds = %69
  br label %71

71:                                               ; preds = %70
  %72 = call i32 @get_log_level()
  %73 = icmp sge i32 %72, 5
  br i1 %73, label %74, label %76

74:                                               ; preds = %71
  %75 = load i32, ptr %10, align 4
  call void (i32, ptr, ...) @log_var(i32 noundef 5, ptr noundef @.str.1, i32 noundef %75)
  br label %76

76:                                               ; preds = %74, %71
  br label %77

77:                                               ; preds = %76
  br label %78

78:                                               ; preds = %77
  br label %79

79:                                               ; preds = %78
  br label %80

80:                                               ; preds = %79
  br label %81

81:                                               ; preds = %80
  %82 = load i32, ptr %6, align 4
  %83 = load i32, ptr %7, align 4
  call void @_delay_rpc(i32 noundef %82, i32 noundef %83)
  br label %59, !llvm.loop !8

84:                                               ; preds = %59
  %85 = load i32, ptr %9, align 4
  store i32 %85, ptr %4, align 4
  store i32 1, ptr %12, align 4
  br label %86

86:                                               ; preds = %84, %67, %19, %15
  call void @llvm.lifetime.end.p0(i64 4, ptr %11) #8
  call void @llvm.lifetime.end.p0(i64 4, ptr %10) #8
  call void @llvm.lifetime.end.p0(i64 4, ptr %9) #8
  call void @llvm.lifetime.end.p0(i64 424, ptr %8) #8
  %87 = load i32, ptr %4, align 4
  ret i32 %87
}