; Function Attrs: nounwind uwtable
define dso_local i32 @slurm_pmi_send_kvs_comm_set(ptr noundef %0, i32 noundef %1, i32 noundef %2) local_unnamed_addr #0 {
  %4 = alloca ptr, align 8
  %5 = alloca %struct.slurm_msg, align 8
  %6 = alloca i32, align 4
  call void @llvm.lifetime.start.p0(i64 424, ptr nonnull %5) #10
  call void @llvm.lifetime.start.p0(i64 4, ptr nonnull %6) #10
  %7 = icmp eq ptr %0, null
  br i1 %7, label %_get_addr.exit, label %8

8:                                                ; preds = %3
  tail call void @slurm_init(ptr noundef null) #10
  %9 = load i16, ptr @srun_port, align 2
  %.not.i = icmp eq i16 %9, 0
  br i1 %.not.i, label %10, label %18

10:                                               ; preds = %8
  %11 = tail call ptr @getenv(ptr noundef nonnull @.str.13) #10
  %12 = tail call ptr @getenv(ptr noundef nonnull @.str.14) #10
  %13 = icmp ne ptr %11, null
  %14 = icmp ne ptr %12, null
  %or.cond.i = and i1 %13, %14
  br i1 %or.cond.i, label %15, label %_get_addr.exit

15:                                               ; preds = %10
  %16 = tail call i64 @strtol(ptr noundef nonnull captures(none) %12, ptr noundef null, i32 noundef 10) #10
  %17 = trunc i64 %16 to i16
  store i16 %17, ptr @srun_port, align 2
  tail call void @slurm_set_addr(ptr noundef nonnull @srun_addr, i16 noundef zeroext %17, ptr noundef nonnull %11) #10
  br label %18

18:                                               ; preds = %15, %8
  store i32 0, ptr %6, align 4
  call void @llvm.lifetime.start.p0(i64 8, ptr nonnull %4) #10
  %19 = load i32, ptr @pmi_time, align 4
  %.not.i18 = icmp eq i32 %19, 0
  br i1 %.not.i18, label %20, label %_set_pmi_time.exit

20:                                               ; preds = %18
  %21 = tail call ptr @getenv(ptr noundef nonnull @.str.15) #10
  %22 = icmp eq ptr %21, null
  br i1 %22, label %.sink.split.i, label %23

23:                                               ; preds = %20
  %24 = call i64 @strtol(ptr noundef nonnull %21, ptr noundef nonnull %4, i32 noundef 10) #10
  %25 = trunc i64 %24 to i32
  store i32 %25, ptr @pmi_time, align 4
  %26 = icmp slt i32 %25, 1
  br i1 %26, label %30, label %27

27:                                               ; preds = %23
  %28 = load ptr, ptr %4, align 8
  %29 = load i8, ptr %28, align 1
  %.not3.i = icmp eq i8 %29, 0
  br i1 %.not3.i, label %_set_pmi_time.exit, label %30

30:                                               ; preds = %27, %23
  %31 = tail call i32 (ptr, ...) @error(ptr noundef nonnull @.str.16, ptr noundef nonnull %21) #10
  br label %.sink.split.i

.sink.split.i:                                    ; preds = %30, %20
  store i32 500, ptr @pmi_time, align 4
  br label %_set_pmi_time.exit

_set_pmi_time.exit:                               ; preds = %18, %27, %.sink.split.i
  call void @llvm.lifetime.end.p0(i64 8, ptr nonnull %4) #10
  call void @slurm_msg_t_init(ptr noundef nonnull %5) #10
  call void @slurm_msg_set_r_uid(ptr noundef nonnull %5, i32 noundef -1) #10
  call void @llvm.memcpy.p0.p0.i64(ptr noundef nonnull align 8 dereferenceable(128) %5, ptr noundef nonnull align 8 dereferenceable(128) @srun_addr, i64 128, i1 false)
  %32 = getelementptr inbounds nuw i8, ptr %5, i64 212
  store i16 7201, ptr %32, align 4
  %33 = getelementptr inbounds nuw i8, ptr %5, i64 200
  store ptr %0, ptr %33, align 8
  call fastcc void @_delay_rpc(i32 noundef %1, i32 noundef %2)
  %34 = icmp sgt i32 %2, 4000
  br i1 %34, label %35, label %39

35:                                               ; preds = %_set_pmi_time.exit
  %36 = load i16, ptr getelementptr inbounds nuw (i8, ptr @slurm_conf, i64 744), align 8
  %37 = zext i16 %36 to i32
  %38 = mul nuw nsw i32 %37, 24000
  br label %57

39:                                               ; preds = %_set_pmi_time.exit
  %40 = icmp sgt i32 %2, 1000
  br i1 %40, label %41, label %45

41:                                               ; preds = %39
  %42 = load i16, ptr getelementptr inbounds nuw (i8, ptr @slurm_conf, i64 744), align 8
  %43 = zext i16 %42 to i32
  %44 = mul nuw nsw i32 %43, 12000
  br label %57

45:                                               ; preds = %39
  %46 = icmp sgt i32 %2, 100
  br i1 %46, label %47, label %51

47:                                               ; preds = %45
  %48 = load i16, ptr getelementptr inbounds nuw (i8, ptr @slurm_conf, i64 744), align 8
  %49 = zext i16 %48 to i32
  %50 = mul nuw nsw i32 %49, 5000
  br label %57

51:                                               ; preds = %45
  %52 = icmp sgt i32 %2, 10
  br i1 %52, label %53, label %57

53:                                               ; preds = %51
  %54 = load i16, ptr getelementptr inbounds nuw (i8, ptr @slurm_conf, i64 744), align 8
  %55 = zext i16 %54 to i32
  %56 = mul nuw nsw i32 %55, 2000
  br label %57

57:                                               ; preds = %41, %51, %53, %47, %35
  %.0 = phi i32 [ %38, %35 ], [ %44, %41 ], [ %50, %47 ], [ %56, %53 ], [ 0, %51 ]
  %58 = call i32 @slurm_send_recv_rc_msg_only_one(ptr noundef nonnull %5, ptr noundef nonnull %6, i32 noundef %.0) #10
  %59 = icmp slt i32 %58, 0
  br i1 %59, label %.lr.ph, label %._crit_edge

.lr.ph:                                           ; preds = %57, %67
  %.01321 = phi i32 [ %60, %67 ], [ 0, %57 ]
  %60 = add nuw nsw i32 %.01321, 1
  %exitcond = icmp eq i32 %.01321, 6
  br i1 %exitcond, label %61, label %63

61:                                               ; preds = %.lr.ph
  %62 = call i32 (ptr, ...) @error(ptr noundef nonnull @.str) #10
  br label %_get_addr.exit

63:                                               ; preds = %.lr.ph
  %64 = call i32 @get_log_level() #10
  %65 = icmp sgt i32 %64, 4
  br i1 %65, label %66, label %67

66:                                               ; preds = %63
  call void (i32, ptr, ...) @log_var(i32 noundef 5, ptr noundef nonnull @.str.1, i32 noundef %60) #10
  br label %67

67:                                               ; preds = %63, %66
  call fastcc void @_delay_rpc(i32 noundef %1, i32 noundef %2)
  %68 = call i32 @slurm_send_recv_rc_msg_only_one(ptr noundef nonnull %5, ptr noundef nonnull %6, i32 noundef %.0) #10
  %69 = icmp slt i32 %68, 0
  br i1 %69, label %.lr.ph, label %._crit_edge, !llvm.loop !8

._crit_edge:                                      ; preds = %67, %57
  %70 = load i32, ptr %6, align 4
  br label %_get_addr.exit

_get_addr.exit:                                   ; preds = %10, %3, %._crit_edge, %61
  %.014 = phi i32 [ -1, %61 ], [ %70, %._crit_edge ], [ 22, %3 ], [ -1, %10 ]
  call void @llvm.lifetime.end.p0(i64 4, ptr nonnull %6) #10
  call void @llvm.lifetime.end.p0(i64 424, ptr nonnull %5) #10
  ret i32 %.014
}